; Function Attrs: mustprogress nounwind uwtable
define dso_local void @_ZN4llvm3pdb26DbiModuleDescriptorBuilder6commitERNS_18BinaryStreamWriterE(ptr dead_on_unwind noalias writable sret(%"class.llvm::Error") align 8 %0, ptr noundef nonnull align 8 dereferenceable(256) %1, ptr noundef nonnull align 8 dereferenceable(64) %2) local_unnamed_addr #0 align 2 {
_ZN4llvm5ErrorD2Ev.exit:
  %3 = getelementptr inbounds nuw i8, ptr %1, i64 192
  tail call void @_ZN4llvm18BinaryStreamWriter10writeBytesENS_8ArrayRefIhEE(ptr dead_on_unwind writable sret(%"class.llvm::Error") align 8 %0, ptr noundef nonnull align 8 dereferenceable(64) %2, ptr nonnull align 1 dereferenceable(64) %3, i64 64) #16
  %4 = load ptr, ptr %0, align 8
  %.not = icmp eq ptr %4, null
  br i1 %.not, label %_ZN4llvm5ErrorD2Ev.exit22, label %_ZN4llvm12ErrorSuccessD2Ev.exit

_ZN4llvm5ErrorD2Ev.exit22:                        ; preds = %_ZN4llvm5ErrorD2Ev.exit
  %5 = getelementptr inbounds nuw i8, ptr %1, i64 16
  %6 = tail call noundef ptr @_ZNKSt7__cxx1112basic_stringIcSt11char_traitsIcESaIcEE4dataEv(ptr noundef nonnull align 8 dereferenceable(32) %5) #16
  %7 = tail call noundef i64 @_ZNKSt7__cxx1112basic_stringIcSt11char_traitsIcESaIcEE6lengthEv(ptr noundef nonnull align 8 dereferenceable(32) %5) #16
  tail call void @_ZN4llvm18BinaryStreamWriter12writeCStringENS_9StringRefE(ptr dead_on_unwind nonnull writable sret(%"class.llvm::Error") align 8 %0, ptr noundef nonnull align 8 dereferenceable(64) %2, ptr %6, i64 %7) #16
  %8 = load ptr, ptr %0, align 8
  %.not29 = icmp eq ptr %8, null
  br i1 %.not29, label %_ZN4llvm5ErrorD2Ev.exit23, label %_ZN4llvm12ErrorSuccessD2Ev.exit

_ZN4llvm5ErrorD2Ev.exit23:                        ; preds = %_ZN4llvm5ErrorD2Ev.exit22
  %9 = getelementptr inbounds nuw i8, ptr %1, i64 48
  %10 = tail call noundef ptr @_ZNKSt7__cxx1112basic_stringIcSt11char_traitsIcESaIcEE4dataEv(ptr noundef nonnull align 8 dereferenceable(32) %9) #16
  %11 = tail call noundef i64 @_ZNKSt7__cxx1112basic_stringIcSt11char_traitsIcESaIcEE6lengthEv(ptr noundef nonnull align 8 dereferenceable(32) %9) #16
  tail call void @_ZN4llvm18BinaryStreamWriter12writeCStringENS_9StringRefE(ptr dead_on_unwind nonnull writable sret(%"class.llvm::Error") align 8 %0, ptr noundef nonnull align 8 dereferenceable(64) %2, ptr %10, i64 %11) #16
  %12 = load ptr, ptr %0, align 8
  %.not30 = icmp eq ptr %12, null
  br i1 %.not30, label %_ZN4llvm5ErrorD2Ev.exit24, label %_ZN4llvm12ErrorSuccessD2Ev.exit

_ZN4llvm5ErrorD2Ev.exit24:                        ; preds = %_ZN4llvm5ErrorD2Ev.exit23
  tail call void @_ZN4llvm18BinaryStreamWriter14padToAlignmentEj(ptr dead_on_unwind nonnull writable sret(%"class.llvm::Error") align 8 %0, ptr noundef nonnull align 8 dereferenceable(64) %2, i32 noundef 4) #16
  br label %_ZN4llvm12ErrorSuccessD2Ev.exit

_ZN4llvm12ErrorSuccessD2Ev.exit:                  ; preds = %_ZN4llvm5ErrorD2Ev.exit24, %_ZN4llvm5ErrorD2Ev.exit23, %_ZN4llvm5ErrorD2Ev.exit22, %_ZN4llvm5ErrorD2Ev.exit
  ret void
}